; Function Attrs: inlinehint mustprogress uwtable
define internal fastcc noundef zeroext i1 @"_ZZN4lean10sort_fvarsERKNS_9local_ctxERNS_6bufferINS_4exprELm16EEEENK3$_0clERKS4_S9_"(ptr noundef nonnull readonly align 8 captures(none) dereferenceable(8) %0, ptr %.0.val, ptr noundef nonnull readonly align 8 captures(none) dereferenceable(8) %1) unnamed_addr #6 align 2 personality ptr @__gxx_personality_v0 {
  %3 = alloca %"class.lean::local_decl", align 8
  %4 = alloca %"class.lean::local_decl", align 8
  call void @llvm.lifetime.start.p0(i64 8, ptr nonnull %3) #25
  %5 = load ptr, ptr %0, align 8, !tbaa !366
  %6 = getelementptr inbounds nuw i8, ptr %.0.val, i64 8
  call void @_ZNK4lean9local_ctx14get_local_declERKNS_4nameE(ptr dead_on_unwind nonnull writable sret(%"class.lean::local_decl") align 8 %3, ptr noundef nonnull align 8 dereferenceable(8) %5, ptr noundef nonnull align 8 dereferenceable(8) %6)
  %7 = load ptr, ptr %3, align 8, !tbaa !3
  %8 = getelementptr inbounds nuw i8, ptr %7, i64 8
  %9 = load ptr, ptr %8, align 8, !tbaa !3
  call void @llvm.lifetime.start.p0(i64 8, ptr nonnull %4) #25
  %10 = load ptr, ptr %0, align 8, !tbaa !366
  %11 = load ptr, ptr %1, align 8, !tbaa !3, !noalias !368
  %12 = getelementptr inbounds nuw i8, ptr %11, i64 8
  invoke void @_ZNK4lean9local_ctx14get_local_declERKNS_4nameE(ptr dead_on_unwind nonnull writable sret(%"class.lean::local_decl") align 8 %4, ptr noundef nonnull align 8 dereferenceable(8) %10, ptr noundef nonnull align 8 dereferenceable(8) %12)
          to label %13 unwind label %49

13:                                               ; preds = %2
  %14 = load ptr, ptr %4, align 8, !tbaa !3
  %15 = getelementptr inbounds nuw i8, ptr %14, i64 8
  %16 = load ptr, ptr %15, align 8, !tbaa !3
  %17 = ptrtoint ptr %14 to i64
  %18 = and i64 %17, 1
  %.not.i.i = icmp eq i64 %18, 0
  br i1 %.not.i.i, label %19, label %_ZN4lean10object_refD2Ev.exit

19:                                               ; preds = %13
  %20 = load i32, ptr %14, align 4, !tbaa !13
  %21 = icmp sgt i32 %20, 1
  br i1 %21, label %22, label %24, !prof !15

22:                                               ; preds = %19
  %23 = add nsw i32 %20, -1
  store i32 %23, ptr %14, align 4, !tbaa !13
  br label %_ZN4lean10object_refD2Ev.exit

24:                                               ; preds = %19
  %.not.i.i.i = icmp eq i32 %20, 0
  br i1 %.not.i.i.i, label %_ZN4lean10object_refD2Ev.exit, label %25

25:                                               ; preds = %24
  invoke void @lean_dec_ref_cold(ptr noundef nonnull %14)
          to label %_ZN4lean10object_refD2Ev.exit unwind label %26

26:                                               ; preds = %25
  %27 = landingpad { ptr, i32 }
          catch ptr null
  %28 = extractvalue { ptr, i32 } %27, 0
  call void @__clang_call_terminate(ptr %28) #26
  unreachable

_ZN4lean10object_refD2Ev.exit:                    ; preds = %13, %22, %24, %25
  call void @llvm.lifetime.end.p0(i64 8, ptr nonnull %4) #25
  %29 = load ptr, ptr %3, align 8, !tbaa !3
  %30 = ptrtoint ptr %29 to i64
  %31 = and i64 %30, 1
  %.not.i.i8 = icmp eq i64 %31, 0
  br i1 %.not.i.i8, label %32, label %_ZN4lean10object_refD2Ev.exit10

32:                                               ; preds = %_ZN4lean10object_refD2Ev.exit
  %33 = load i32, ptr %29, align 4, !tbaa !13
  %34 = icmp sgt i32 %33, 1
  br i1 %34, label %35, label %37, !prof !15

35:                                               ; preds = %32
  %36 = add nsw i32 %33, -1
  store i32 %36, ptr %29, align 4, !tbaa !13
  br label %_ZN4lean10object_refD2Ev.exit10

37:                                               ; preds = %32
  %.not.i.i.i9 = icmp eq i32 %33, 0
  br i1 %.not.i.i.i9, label %_ZN4lean10object_refD2Ev.exit10, label %38

38:                                               ; preds = %37
  invoke void @lean_dec_ref_cold(ptr noundef nonnull %29)
          to label %_ZN4lean10object_refD2Ev.exit10 unwind label %39

39:                                               ; preds = %38
  %40 = landingpad { ptr, i32 }
          catch ptr null
  %41 = extractvalue { ptr, i32 } %40, 0
  call void @__clang_call_terminate(ptr %41) #26
  unreachable

_ZN4lean10object_refD2Ev.exit10:                  ; preds = %_ZN4lean10object_refD2Ev.exit, %35, %37, %38
  %42 = ptrtoint ptr %9 to i64
  %43 = lshr i64 %42, 1
  %44 = trunc i64 %43 to i32
  %45 = ptrtoint ptr %16 to i64
  %46 = lshr i64 %45, 1
  %47 = trunc i64 %46 to i32
  %48 = icmp ult i32 %44, %47
  call void @llvm.lifetime.end.p0(i64 8, ptr nonnull %3) #25
  ret i1 %48

49:                                               ; preds = %2
  %50 = landingpad { ptr, i32 }
          cleanup
  call void @llvm.lifetime.end.p0(i64 8, ptr nonnull %4) #25
  call void @_ZN4lean10object_refD2Ev(ptr noundef nonnull align 8 dereferenceable(8) %3) #25
  call void @llvm.lifetime.end.p0(i64 8, ptr nonnull %3) #25
  resume { ptr, i32 } %50
}